target datalayout = "e-m:e-p270:32:32-p271:32:32-p272:64:64-i64:64-i128:128-f80:128-n8:16:32:64-S128"
target triple = "x86_64-pc-linux-gnu"

%"struct.cv::softdouble" = type { i64 }

; Function Attrs: mustprogress uwtable
define internal void @_ZN2cvL7f64_subENS_10softdoubleES0_(ptr dead_on_unwind noalias writable sret(%"struct.cv::softdouble") align 8 %0, ptr noundef %1, ptr noundef %2) #0 {
  %4 = alloca ptr, align 8
  %5 = alloca ptr, align 8
  %6 = alloca ptr, align 8
  %7 = alloca i64, align 8
  %8 = alloca i8, align 1
  %9 = alloca i64, align 8
  %10 = alloca i8, align 1
  store ptr %0, ptr %4, align 8
  store ptr %1, ptr %5, align 8
  store ptr %2, ptr %6, align 8
  %11 = getelementptr inbounds %"struct.cv::softdouble", ptr %1, i32 0, i32 0
  %12 = load i64, ptr %11, align 8
  store i64 %12, ptr %7, align 8
  %13 = load i64, ptr %7, align 8
  %14 = lshr i64 %13, 63
  %15 = icmp ne i64 %14, 0
  %16 = zext i1 %15 to i8
  store i8 %16, ptr %8, align 1
  %17 = getelementptr inbounds %"struct.cv::softdouble", ptr %2, i32 0, i32 0
  %18 = load i64, ptr %17, align 8
  store i64 %18, ptr %9, align 8
  %19 = load i64, ptr %9, align 8
  %20 = lshr i64 %19, 63
  %21 = icmp ne i64 %20, 0
  %22 = zext i1 %21 to i8
  store i8 %22, ptr %10, align 1
  %23 = load i8, ptr %8, align 1
  %24 = trunc i8 %23 to i1
  %25 = zext i1 %24 to i32
  %26 = load i8, ptr %10, align 1
  %27 = trunc i8 %26 to i1
  %28 = zext i1 %27 to i32
  %29 = icmp eq i32 %25, %28
  br i1 %29, label %30, label %35

30:                                               ; preds = %3
  %31 = load i64, ptr %7, align 8
  %32 = load i64, ptr %9, align 8
  %33 = load i8, ptr %8, align 1
  %34 = trunc i8 %33 to i1
  call void @_ZN2cvL20softfloat_subMagsF64Emmb(ptr dead_on_unwind writable sret(%"struct.cv::softdouble") align 8 %0, i64 noundef %31, i64 noundef %32, i1 noundef zeroext %34)
  br label %40

35:                                               ; preds = %3
  %36 = load i64, ptr %7, align 8
  %37 = load i64, ptr %9, align 8
  %38 = load i8, ptr %8, align 1
  %39 = trunc i8 %38 to i1
  call void @_ZN2cvL20softfloat_addMagsF64Emmb(ptr dead_on_unwind writable sret(%"struct.cv::softdouble") align 8 %0, i64 noundef %36, i64 noundef %37, i1 noundef zeroext %39)
  br label %40

40:                                               ; preds = %35, %30
  ret void
}

; Function Attrs: mustprogress nounwind uwtable
define linkonce_odr hidden void @_ZN2cv10softdoubleC2ERKS0_(ptr noundef nonnull align 8 dereferenceable(8) %0, ptr noundef nonnull align 8 dereferenceable(8) %1) unnamed_addr #1 comdat align 2 {
  %3 = alloca ptr, align 8
  %4 = alloca ptr, align 8
  store ptr %0, ptr %3, align 8
  store ptr %1, ptr %4, align 8
  %5 = load ptr, ptr %3, align 8
  %6 = load ptr, ptr %4, align 8
  %7 = getelementptr inbounds %"struct.cv::softdouble", ptr %6, i32 0, i32 0
  %8 = load i64, ptr %7, align 8
  %9 = getelementptr inbounds %"struct.cv::softdouble", ptr %5, i32 0, i32 0
  store i64 %8, ptr %9, align 8
  ret void
}

; Function Attrs: mustprogress uwtable
define void @_ZNK2cv10softdoublemiERKS0_(ptr dead_on_unwind noalias writable sret(%"struct.cv::softdouble") align 8 %0, ptr noundef nonnull align 8 dereferenceable(8) %1, ptr noundef nonnull align 8 dereferenceable(8) %2) #0 align 2 {
  %4 = alloca ptr, align 8
  %5 = alloca ptr, align 8
  %6 = alloca ptr, align 8
  %7 = alloca %"struct.cv::softdouble", align 8
  %8 = alloca %"struct.cv::softdouble", align 8
  store ptr %0, ptr %4, align 8
  store ptr %1, ptr %5, align 8
  store ptr %2, ptr %6, align 8
  %9 = load ptr, ptr %5, align 8
  call void @_ZN2cv10softdoubleC2ERKS0_(ptr noundef nonnull align 8 dereferenceable(8) %7, ptr noundef nonnull align 8 dereferenceable(8) %9)
  %10 = load ptr, ptr %6, align 8
  call void @_ZN2cv10softdoubleC2ERKS0_(ptr noundef nonnull align 8 dereferenceable(8) %8, ptr noundef nonnull align 8 dereferenceable(8) %10)
  call void @_ZN2cvL7f64_subENS_10softdoubleES0_(ptr dead_on_unwind writable sret(%"struct.cv::softdouble") align 8 %0, ptr noundef %7, ptr noundef %8)
  ret void
}