; Function Attrs: mustprogress nofree norecurse nosync nounwind willreturn memory(argmem: readwrite) uwtable
define void @_ZNK2cv10softdoublemiERKS0_(ptr dead_on_unwind noalias nocapture writable writeonly sret(%"struct.cv::softdouble") align 8 %0, ptr nocapture noundef nonnull readonly align 8 dereferenceable(8) %1, ptr nocapture noundef nonnull readonly align 8 dereferenceable(8) %2) local_unnamed_addr #2 align 2 {
  %4 = load i64, ptr %1, align 8
  %5 = load i64, ptr %2, align 8
  %6 = icmp slt i64 %4, 0
  %.unshifted.i = xor i64 %5, %4
  %7 = icmp sgt i64 %.unshifted.i, -1
  br i1 %7, label %8, label %9

8:                                                ; preds = %3
  tail call fastcc void @_ZN2cvL20softfloat_subMagsF64Emmb(ptr dead_on_unwind noalias writable align 8 %0, i64 noundef %4, i64 noundef %5, i1 noundef zeroext %6), !alias.scope !61
  br label %_ZN2cvL7f64_subENS_10softdoubleES0_.exit

9:                                                ; preds = %3
  tail call fastcc void @_ZN2cvL20softfloat_addMagsF64Emmb(ptr dead_on_unwind noalias writable align 8 %0, i64 noundef %4, i64 noundef %5, i1 noundef zeroext %6), !alias.scope !61
  br label %_ZN2cvL7f64_subENS_10softdoubleES0_.exit

_ZN2cvL7f64_subENS_10softdoubleES0_.exit:         ; preds = %8, %9
  ret void
}